; ModuleID = '57/2196.c'
source_filename = "57/2196.c"
target datalayout = "e-m:e-p270:32:32-p271:32:32-p272:64:64-i64:64-f80:128-n8:16:32:64-S128"
target triple = "x86_64-pc-linux-gnu"

@.str = private unnamed_addr constant [3 x i8] c"%d\00", align 1
@.str.1 = private unnamed_addr constant [4 x i8] c"%s\0A\00", align 1

; Function Attrs: noinline nounwind uwtable
define dso_local void @main() #0 {
  %1 = alloca i32, align 4
  %2 = alloca i32, align 4
  %3 = alloca i32, align 4
  %4 = alloca i32, align 4
  %5 = alloca [50 x [15 x i8]], align 16
  %6 = alloca [50 x [15 x i8]], align 16
  %7 = bitcast [50 x [15 x i8]]* %6 to i8*
  call void @llvm.memset.p0i8.i64(i8* align 16 %7, i8 0, i64 750, i1 false)
  %8 = bitcast i8* %7 to <{ <{ i8, [14 x i8] }>, [49 x <{ i8, [14 x i8] }>] }>*
  %9 = getelementptr inbounds <{ <{ i8, [14 x i8] }>, [49 x <{ i8, [14 x i8] }>] }>, <{ <{ i8, [14 x i8] }>, [49 x <{ i8, [14 x i8] }>] }>* %8, i32 0, i32 0
  %10 = getelementptr inbounds <{ i8, [14 x i8] }>, <{ i8, [14 x i8] }>* %9, i32 0, i32 0
  store i8 32, i8* %10, align 16
  %11 = call i32 (i8*, ...) @__isoc99_scanf(i8* getelementptr inbounds ([3 x i8], [3 x i8]* @.str, i64 0, i64 0), i32* %1)
  store i32 0, i32* %2, align 4
  br label %12

12:                                               ; preds = %23, %0
  %13 = load i32, i32* %2, align 4
  %14 = load i32, i32* %1, align 4
  %15 = add nsw i32 %14, 1
  %16 = icmp slt i32 %13, %15
  br i1 %16, label %17, label %26

17:                                               ; preds = %12
  %18 = load i32, i32* %2, align 4
  %19 = sext i32 %18 to i64
  %20 = getelementptr inbounds [50 x [15 x i8]], [50 x [15 x i8]]* %5, i64 0, i64 %19
  %21 = getelementptr inbounds [15 x i8], [15 x i8]* %20, i64 0, i64 0
  %22 = call i32 (i8*, ...) bitcast (i32 (...)* @gets to i32 (i8*, ...)*)(i8* %21)
  br label %23

23:                                               ; preds = %17
  %24 = load i32, i32* %2, align 4
  %25 = add nsw i32 %24, 1
  store i32 %25, i32* %2, align 4
  br label %12

26:                                               ; preds = %12
  store i32 0, i32* %2, align 4
  br label %27

27:                                               ; preds = %171, %26
  %28 = load i32, i32* %2, align 4
  %29 = load i32, i32* %1, align 4
  %30 = add nsw i32 %29, 1
  %31 = icmp slt i32 %28, %30
  br i1 %31, label %32, label %174

32:                                               ; preds = %27
  %33 = load i32, i32* %2, align 4
  %34 = sext i32 %33 to i64
  %35 = getelementptr inbounds [50 x [15 x i8]], [50 x [15 x i8]]* %5, i64 0, i64 %34
  %36 = getelementptr inbounds [15 x i8], [15 x i8]* %35, i64 0, i64 0
  %37 = call i64 @strlen(i8* %36) #5
  %38 = trunc i64 %37 to i32
  store i32 %38, i32* %3, align 4
  %39 = load i32, i32* %3, align 4
  %40 = sub nsw i32 %39, 3
  store i32 %40, i32* %4, align 4
  br label %41

41:                                               ; preds = %162, %32
  %42 = load i32, i32* %4, align 4
  %43 = load i32, i32* %3, align 4
  %44 = icmp slt i32 %42, %43
  br i1 %44, label %45, label %165

45:                                               ; preds = %41
  %46 = load i32, i32* %2, align 4
  %47 = sext i32 %46 to i64
  %48 = getelementptr inbounds [50 x [15 x i8]], [50 x [15 x i8]]* %5, i64 0, i64 %47
  %49 = load i32, i32* %3, align 4
  %50 = sub nsw i32 %49, 2
  %51 = sext i32 %50 to i64
  %52 = getelementptr inbounds [15 x i8], [15 x i8]* %48, i64 0, i64 %51
  %53 = load i8, i8* %52, align 1
  %54 = sext i8 %53 to i32
  %55 = icmp eq i32 %54, 101
  br i1 %55, label %56, label %80

56:                                               ; preds = %45
  %57 = load i32, i32* %2, align 4
  %58 = sext i32 %57 to i64
  %59 = getelementptr inbounds [50 x [15 x i8]], [50 x [15 x i8]]* %5, i64 0, i64 %58
  %60 = load i32, i32* %3, align 4
  %61 = sub nsw i32 %60, 1
  %62 = sext i32 %61 to i64
  %63 = getelementptr inbounds [15 x i8], [15 x i8]* %59, i64 0, i64 %62
  %64 = load i8, i8* %63, align 1
  %65 = sext i8 %64 to i32
  %66 = icmp eq i32 %65, 114
  br i1 %66, label %67, label %80

67:                                               ; preds = %56
  %68 = load i32, i32* %2, align 4
  %69 = sext i32 %68 to i64
  %70 = getelementptr inbounds [50 x [15 x i8]], [50 x [15 x i8]]* %6, i64 0, i64 %69
  %71 = getelementptr inbounds [15 x i8], [15 x i8]* %70, i64 0, i64 0
  %72 = load i32, i32* %2, align 4
  %73 = sext i32 %72 to i64
  %74 = getelementptr inbounds [50 x [15 x i8]], [50 x [15 x i8]]* %5, i64 0, i64 %73
  %75 = getelementptr inbounds [15 x i8], [15 x i8]* %74, i64 0, i64 0
  %76 = load i32, i32* %3, align 4
  %77 = sub nsw i32 %76, 2
  %78 = sext i32 %77 to i64
  %79 = call i8* @strncpy(i8* %71, i8* %75, i64 %78) #6
  br label %80

80:                                               ; preds = %67, %56, %45
  %81 = load i32, i32* %2, align 4
  %82 = sext i32 %81 to i64
  %83 = getelementptr inbounds [50 x [15 x i8]], [50 x [15 x i8]]* %5, i64 0, i64 %82
  %84 = load i32, i32* %3, align 4
  %85 = sub nsw i32 %84, 2
  %86 = sext i32 %85 to i64
  %87 = getelementptr inbounds [15 x i8], [15 x i8]* %83, i64 0, i64 %86
  %88 = load i8, i8* %87, align 1
  %89 = sext i8 %88 to i32
  %90 = icmp eq i32 %89, 108
  br i1 %90, label %91, label %115

91:                                               ; preds = %80
  %92 = load i32, i32* %2, align 4
  %93 = sext i32 %92 to i64
  %94 = getelementptr inbounds [50 x [15 x i8]], [50 x [15 x i8]]* %5, i64 0, i64 %93
  %95 = load i32, i32* %3, align 4
  %96 = sub nsw i32 %95, 1
  %97 = sext i32 %96 to i64
  %98 = getelementptr inbounds [15 x i8], [15 x i8]* %94, i64 0, i64 %97
  %99 = load i8, i8* %98, align 1
  %100 = sext i8 %99 to i32
  %101 = icmp eq i32 %100, 121
  br i1 %101, label %102, label %115

102:                                              ; preds = %91
  %103 = load i32, i32* %2, align 4
  %104 = sext i32 %103 to i64
  %105 = getelementptr inbounds [50 x [15 x i8]], [50 x [15 x i8]]* %6, i64 0, i64 %104
  %106 = getelementptr inbounds [15 x i8], [15 x i8]* %105, i64 0, i64 0
  %107 = load i32, i32* %2, align 4
  %108 = sext i32 %107 to i64
  %109 = getelementptr inbounds [50 x [15 x i8]], [50 x [15 x i8]]* %5, i64 0, i64 %108
  %110 = getelementptr inbounds [15 x i8], [15 x i8]* %109, i64 0, i64 0
  %111 = load i32, i32* %3, align 4
  %112 = sub nsw i32 %111, 2
  %113 = sext i32 %112 to i64
  %114 = call i8* @strncpy(i8* %106, i8* %110, i64 %113) #6
  br label %115

115:                                              ; preds = %102, %91, %80
  %116 = load i32, i32* %2, align 4
  %117 = sext i32 %116 to i64
  %118 = getelementptr inbounds [50 x [15 x i8]], [50 x [15 x i8]]* %5, i64 0, i64 %117
  %119 = load i32, i32* %3, align 4
  %120 = sub nsw i32 %119, 3
  %121 = sext i32 %120 to i64
  %122 = getelementptr inbounds [15 x i8], [15 x i8]* %118, i64 0, i64 %121
  %123 = load i8, i8* %122, align 1
  %124 = sext i8 %123 to i32
  %125 = icmp eq i32 %124, 105
  br i1 %125, label %126, label %161

126:                                              ; preds = %115
  %127 = load i32, i32* %2, align 4
  %128 = sext i32 %127 to i64
  %129 = getelementptr inbounds [50 x [15 x i8]], [50 x [15 x i8]]* %5, i64 0, i64 %128
  %130 = load i32, i32* %3, align 4
  %131 = sub nsw i32 %130, 2
  %132 = sext i32 %131 to i64
  %133 = getelementptr inbounds [15 x i8], [15 x i8]* %129, i64 0, i64 %132
  %134 = load i8, i8* %133, align 1
  %135 = sext i8 %134 to i32
  %136 = icmp eq i32 %135, 110
  br i1 %136, label %137, label %161

137:                                              ; preds = %126
  %138 = load i32, i32* %2, align 4
  %139 = sext i32 %138 to i64
  %140 = getelementptr inbounds [50 x [15 x i8]], [50 x [15 x i8]]* %5, i64 0, i64 %139
  %141 = load i32, i32* %3, align 4
  %142 = sub nsw i32 %141, 1
  %143 = sext i32 %142 to i64
  %144 = getelementptr inbounds [15 x i8], [15 x i8]* %140, i64 0, i64 %143
  %145 = load i8, i8* %144, align 1
  %146 = sext i8 %145 to i32
  %147 = icmp eq i32 %146, 103
  br i1 %147, label %148, label %161

148:                                              ; preds = %137
  %149 = load i32, i32* %2, align 4
  %150 = sext i32 %149 to i64
  %151 = getelementptr inbounds [50 x [15 x i8]], [50 x [15 x i8]]* %6, i64 0, i64 %150
  %152 = getelementptr inbounds [15 x i8], [15 x i8]* %151, i64 0, i64 0
  %153 = load i32, i32* %2, align 4
  %154 = sext i32 %153 to i64
  %155 = getelementptr inbounds [50 x [15 x i8]], [50 x [15 x i8]]* %5, i64 0, i64 %154
  %156 = getelementptr inbounds [15 x i8], [15 x i8]* %155, i64 0, i64 0
  %157 = load i32, i32* %3, align 4
  %158 = sub nsw i32 %157, 3
  %159 = sext i32 %158 to i64
  %160 = call i8* @strncpy(i8* %152, i8* %156, i64 %159) #6
  br label %161

161:                                              ; preds = %148, %137, %126, %115
  br label %162

162:                                              ; preds = %161
  %163 = load i32, i32* %4, align 4
  %164 = add nsw i32 %163, 1
  store i32 %164, i32* %4, align 4
  br label %41

165:                                              ; preds = %41
  %166 = load i32, i32* %2, align 4
  %167 = sext i32 %166 to i64
  %168 = getelementptr inbounds [50 x [15 x i8]], [50 x [15 x i8]]* %6, i64 0, i64 %167
  %169 = getelementptr inbounds [15 x i8], [15 x i8]* %168, i64 0, i64 0
  %170 = call i32 (i8*, ...) @printf(i8* getelementptr inbounds ([4 x i8], [4 x i8]* @.str.1, i64 0, i64 0), i8* %169)
  br label %171

171:                                              ; preds = %165
  %172 = load i32, i32* %2, align 4
  %173 = add nsw i32 %172, 1
  store i32 %173, i32* %2, align 4
  br label %27

174:                                              ; preds = %27
  ret void
}

; Function Attrs: argmemonly nounwind willreturn
declare void @llvm.memset.p0i8.i64(i8* nocapture writeonly, i8, i64, i1 immarg) #1

declare dso_local i32 @__isoc99_scanf(i8*, ...) #2

declare dso_local i32 @gets(...) #2

; Function Attrs: nounwind readonly
declare dso_local i64 @strlen(i8*) #3

; Function Attrs: nounwind
declare dso_local i8* @strncpy(i8*, i8*, i64) #4

declare dso_local i32 @printf(i8*, ...) #2


!llvm.module.flags = !{!0}
!llvm.ident = !{!1}

!0 = !{i32 1, !"wchar_size", i32 4}
!1 = !{!"clang version 10.0.0-4ubuntu1 "}
